(dp1
S'OriginalConfig'
p2
ccopy_reg
_reconstructor
p3
(cWMCore.Configuration
Configuration
p4
c__builtin__
object
p5
NtRp6
(dp7
S'Site'
p8
g3
(cWMCore.Configuration
ConfigSection
p9
g5
NtRp10
(dp11
S'_internal_documentation'
p12
S''
sS'_internal_settings'
p13
c__builtin__
set
p14
((lp15
S'storageSite'
p16
atRp17
sS'_internal_name'
p18
g8
sS'_internal_docstrings'
p19
(dp20
sS'_internal_children'
p21
g14
((ltRp22
sg16
S'T2_IT_Bari'
p23
sS'_internal_parent_ref'
p24
NsbsS'_internal_sections'
p25
(lp26
S'General'
p27
aS'JobType'
p28
aS'Data'
p29
ag8
asg27
g3
(g9
g5
NtRp30
(dp31
g12
S''
sg13
g14
((lp32
S'workArea'
p33
aS'serverUrl'
p34
atRp35
sg18
g27
sg34
S'cmsweb.cern.ch'
p36
sg19
(dp37
sg21
g14
((ltRp38
sg24
Nsg33
S'crab_projects'
p39
sbsS'_internal_webapps'
p40
(lp41
sS'_internal_components'
p42
(lp43
sg29
g3
(g9
g5
NtRp44
(dp45
S'publishDbsUrl'
p46
S'phys03'
p47
sS'outlfn'
p48
S'/store/group/cristella'
p49
sS'totalUnits'
p50
I10
sS'unitsPerJob'
p51
I10
sg12
S''
sg13
g14
((lp52
g48
ag50
ag51
ag46
aS'splitting'
p53
aS'publishDataName'
p54
aS'primaryDataset'
p55
aS'publication'
p56
atRp57
sg18
g29
sg53
S'EventBased'
p58
sg19
(dp59
sg21
g14
((ltRp60
sg54
S'MC_generation'
p61
sg24
Nsg55
S'Bd2Psi2SKpi'
p62
sg56
I01
sbsg28
g3
(g9
g5
NtRp63
(dp64
S'filecacheurl'
p65
S'https://cmsweb.cern.ch/crabcache'
p66
sg12
S''
sg13
g14
((lp67
S'psetName'
p68
aS'pluginName'
p69
aS'capath'
p70
aS'proxyfilename'
p71
ag65
atRp72
sg18
g28
sg19
(dp73
sg69
S'PrivateMC'
p74
sg70
S'/etc/grid-security/certificates/'
p75
sg21
g14
((ltRp76
sg68
S'PYTHIA6_Bd2Psi2SKpi_TuneZ2star_8TeV_cff_py_GEN_SIM_DIGI_L1_DIGI2RAW_HLT_RAW2DIGI_L1Reco_RECO.py'
p77
sg24
Nsg71
S'/tmp/x509up_u50855'
p78
sbsbsS'voGroup'
p79
S''
sS'Server'
p80
g36
sS'instance'
p81
S'prod'
p82
sS'RequestName'
p83
S'141028_114951_crab3test-1:lecriste_crab_20141028_124830'
p84
sS'voRole'
p85
S''
sS'Port'
p86
S''
s.